target datalayout = "e-m:e-p270:32:32-p271:32:32-p272:64:64-i64:64-i128:128-f80:128-n8:16:32:64-S128"
target triple = "x86_64-pc-linux-gnu"

%struct.SDL_Gamepad = type { ptr, i32, ptr, i32, i32, ptr, i32, ptr, ptr, ptr, i64, ptr }
%struct.SDL_GamepadBinding = type { i32, %union.anon, i32, %union.anon.1 }
%union.anon = type { %struct.anon }
%struct.anon = type { i32, i32, i32 }
%union.anon.1 = type { %struct.anon.2 }
%struct.anon.2 = type { i32, i32, i32 }
%struct.anon.0 = type { i32, i32 }

@.str.4 = private unnamed_addr constant [26 x i8] c"Parameter '%s' is invalid\00", align 1
@.str.5 = private unnamed_addr constant [8 x i8] c"gamepad\00", align 1

; Function Attrs: nounwind uwtable
define hidden zeroext i1 @SDL_GetGamepadButton_REAL(ptr noundef %0, i32 noundef %1) #0 {
  %3 = alloca i1, align 1
  %4 = alloca ptr, align 8
  %5 = alloca i32, align 4
  %6 = alloca i8, align 1
  %7 = alloca i32, align 4
  %8 = alloca i32, align 4
  %9 = alloca ptr, align 8
  %10 = alloca i8, align 1
  %11 = alloca i32, align 4
  %12 = alloca i32, align 4
  %13 = alloca i32, align 4
  store ptr %0, ptr %4, align 8
  store i32 %1, ptr %5, align 4
  call void @llvm.lifetime.start.p0(i64 1, ptr %6) #8
  store i8 0, ptr %6, align 1
  call void @SDL_LockJoysticks_REAL()
  call void @llvm.lifetime.start.p0(i64 4, ptr %7) #8
  %14 = load ptr, ptr %4, align 8
  %15 = call zeroext i1 @SDL_ObjectValid(ptr noundef %14, i32 noundef 5)
  br i1 %15, label %16, label %21

16:                                               ; preds = %2
  %17 = load ptr, ptr %4, align 8
  %18 = getelementptr inbounds nuw %struct.SDL_Gamepad, ptr %17, i32 0, i32 0
  %19 = load ptr, ptr %18, align 8
  %20 = call zeroext i1 @SDL_IsJoystickValid(ptr noundef %19)
  br i1 %20, label %23, label %21

21:                                               ; preds = %16, %2
  %22 = call zeroext i1 (ptr, ...) @SDL_SetError_REAL(ptr noundef @.str.4, ptr noundef @.str.5)
  call void @SDL_UnlockJoysticks_REAL()
  store i1 false, ptr %3, align 1
  store i32 1, ptr %8, align 4
  br label %206

23:                                               ; preds = %16
  store i32 0, ptr %7, align 4
  br label %24

24:                                               ; preds = %202, %23
  %25 = load i32, ptr %7, align 4
  %26 = load ptr, ptr %4, align 8
  %27 = getelementptr inbounds nuw %struct.SDL_Gamepad, ptr %26, i32 0, i32 6
  %28 = load i32, ptr %27, align 8
  %29 = icmp slt i32 %25, %28
  br i1 %29, label %30, label %205

30:                                               ; preds = %24
  call void @llvm.lifetime.start.p0(i64 8, ptr %9) #8
  %31 = load ptr, ptr %4, align 8
  %32 = getelementptr inbounds nuw %struct.SDL_Gamepad, ptr %31, i32 0, i32 7
  %33 = load ptr, ptr %32, align 8
  %34 = load i32, ptr %7, align 4
  %35 = sext i32 %34 to i64
  %36 = getelementptr inbounds %struct.SDL_GamepadBinding, ptr %33, i64 %35
  store ptr %36, ptr %9, align 8
  %37 = load ptr, ptr %9, align 8
  %38 = getelementptr inbounds nuw %struct.SDL_GamepadBinding, ptr %37, i32 0, i32 2
  %39 = load i32, ptr %38, align 4
  %40 = icmp eq i32 %39, 1
  br i1 %40, label %41, label %201

41:                                               ; preds = %30
  %42 = load ptr, ptr %9, align 8
  %43 = getelementptr inbounds nuw %struct.SDL_GamepadBinding, ptr %42, i32 0, i32 3
  %44 = load i32, ptr %43, align 4
  %45 = load i32, ptr %5, align 4
  %46 = icmp eq i32 %44, %45
  br i1 %46, label %47, label %201

47:                                               ; preds = %41
  %48 = load ptr, ptr %9, align 8
  %49 = getelementptr inbounds nuw %struct.SDL_GamepadBinding, ptr %48, i32 0, i32 0
  %50 = load i32, ptr %49, align 4
  %51 = icmp eq i32 %50, 2
  br i1 %51, label %52, label %149

52:                                               ; preds = %47
  call void @llvm.lifetime.start.p0(i64 1, ptr %10) #8
  call void @llvm.lifetime.start.p0(i64 4, ptr %11) #8
  %53 = load ptr, ptr %4, align 8
  %54 = getelementptr inbounds nuw %struct.SDL_Gamepad, ptr %53, i32 0, i32 0
  %55 = load ptr, ptr %54, align 8
  %56 = load ptr, ptr %9, align 8
  %57 = getelementptr inbounds nuw %struct.SDL_GamepadBinding, ptr %56, i32 0, i32 1
  %58 = getelementptr inbounds nuw %struct.anon, ptr %57, i32 0, i32 0
  %59 = load i32, ptr %58, align 4
  %60 = call signext i16 @SDL_GetJoystickAxis_REAL(ptr noundef %55, i32 noundef %59)
  %61 = sext i16 %60 to i32
  store i32 %61, ptr %11, align 4
  call void @llvm.lifetime.start.p0(i64 4, ptr %12) #8
  %62 = load ptr, ptr %9, align 8
  %63 = getelementptr inbounds nuw %struct.SDL_GamepadBinding, ptr %62, i32 0, i32 1
  %64 = getelementptr inbounds nuw %struct.anon, ptr %63, i32 0, i32 1
  %65 = load i32, ptr %64, align 4
  %66 = load ptr, ptr %9, align 8
  %67 = getelementptr inbounds nuw %struct.SDL_GamepadBinding, ptr %66, i32 0, i32 1
  %68 = getelementptr inbounds nuw %struct.anon, ptr %67, i32 0, i32 2
  %69 = load i32, ptr %68, align 4
  %70 = load ptr, ptr %9, align 8
  %71 = getelementptr inbounds nuw %struct.SDL_GamepadBinding, ptr %70, i32 0, i32 1
  %72 = getelementptr inbounds nuw %struct.anon, ptr %71, i32 0, i32 1
  %73 = load i32, ptr %72, align 4
  %74 = sub nsw i32 %69, %73
  %75 = sdiv i32 %74, 2
  %76 = add nsw i32 %65, %75
  store i32 %76, ptr %12, align 4
  %77 = load ptr, ptr %9, align 8
  %78 = getelementptr inbounds nuw %struct.SDL_GamepadBinding, ptr %77, i32 0, i32 1
  %79 = getelementptr inbounds nuw %struct.anon, ptr %78, i32 0, i32 1
  %80 = load i32, ptr %79, align 4
  %81 = load ptr, ptr %9, align 8
  %82 = getelementptr inbounds nuw %struct.SDL_GamepadBinding, ptr %81, i32 0, i32 1
  %83 = getelementptr inbounds nuw %struct.anon, ptr %82, i32 0, i32 2
  %84 = load i32, ptr %83, align 4
  %85 = icmp slt i32 %80, %84
  br i1 %85, label %86, label %117

86:                                               ; preds = %52
  %87 = load i32, ptr %11, align 4
  %88 = load ptr, ptr %9, align 8
  %89 = getelementptr inbounds nuw %struct.SDL_GamepadBinding, ptr %88, i32 0, i32 1
  %90 = getelementptr inbounds nuw %struct.anon, ptr %89, i32 0, i32 1
  %91 = load i32, ptr %90, align 4
  %92 = icmp sge i32 %87, %91
  br i1 %92, label %93, label %100

93:                                               ; preds = %86
  %94 = load i32, ptr %11, align 4
  %95 = load ptr, ptr %9, align 8
  %96 = getelementptr inbounds nuw %struct.SDL_GamepadBinding, ptr %95, i32 0, i32 1
  %97 = getelementptr inbounds nuw %struct.anon, ptr %96, i32 0, i32 2
  %98 = load i32, ptr %97, align 4
  %99 = icmp sle i32 %94, %98
  br label %100

100:                                              ; preds = %93, %86
  %101 = phi i1 [ false, %86 ], [ %99, %93 ]
  %102 = zext i1 %101 to i8
  store i8 %102, ptr %10, align 1
  %103 = load i8, ptr %10, align 1, !range !3, !noundef !4
  %104 = trunc i8 %103 to i1
  br i1 %104, label %105, label %116

105:                                              ; preds = %100
  %106 = load i32, ptr %11, align 4
  %107 = load i32, ptr %12, align 4
  %108 = icmp sge i32 %106, %107
  %109 = zext i1 %108 to i32
  %110 = load i8, ptr %6, align 1, !range !3, !noundef !4
  %111 = trunc i8 %110 to i1
  %112 = zext i1 %111 to i32
  %113 = or i32 %112, %109
  %114 = icmp ne i32 %113, 0
  %115 = zext i1 %114 to i8
  store i8 %115, ptr %6, align 1
  br label %116

116:                                              ; preds = %105, %100
  br label %148

117:                                              ; preds = %52
  %118 = load i32, ptr %11, align 4
  %119 = load ptr, ptr %9, align 8
  %120 = getelementptr inbounds nuw %struct.SDL_GamepadBinding, ptr %119, i32 0, i32 1
  %121 = getelementptr inbounds nuw %struct.anon, ptr %120, i32 0, i32 2
  %122 = load i32, ptr %121, align 4
  %123 = icmp sge i32 %118, %122
  br i1 %123, label %124, label %131

124:                                              ; preds = %117
  %125 = load i32, ptr %11, align 4
  %126 = load ptr, ptr %9, align 8
  %127 = getelementptr inbounds nuw %struct.SDL_GamepadBinding, ptr %126, i32 0, i32 1
  %128 = getelementptr inbounds nuw %struct.anon, ptr %127, i32 0, i32 1
  %129 = load i32, ptr %128, align 4
  %130 = icmp sle i32 %125, %129
  br label %131

131:                                              ; preds = %124, %117
  %132 = phi i1 [ false, %117 ], [ %130, %124 ]
  %133 = zext i1 %132 to i8
  store i8 %133, ptr %10, align 1
  %134 = load i8, ptr %10, align 1, !range !3, !noundef !4
  %135 = trunc i8 %134 to i1
  br i1 %135, label %136, label %147

136:                                              ; preds = %131
  %137 = load i32, ptr %11, align 4
  %138 = load i32, ptr %12, align 4
  %139 = icmp sle i32 %137, %138
  %140 = zext i1 %139 to i32
  %141 = load i8, ptr %6, align 1, !range !3, !noundef !4
  %142 = trunc i8 %141 to i1
  %143 = zext i1 %142 to i32
  %144 = or i32 %143, %140
  %145 = icmp ne i32 %144, 0
  %146 = zext i1 %145 to i8
  store i8 %146, ptr %6, align 1
  br label %147

147:                                              ; preds = %136, %131
  br label %148

148:                                              ; preds = %147, %116
  call void @llvm.lifetime.end.p0(i64 4, ptr %12) #8
  call void @llvm.lifetime.end.p0(i64 4, ptr %11) #8
  call void @llvm.lifetime.end.p0(i64 1, ptr %10) #8
  br label %200

149:                                              ; preds = %47
  %150 = load ptr, ptr %9, align 8
  %151 = getelementptr inbounds nuw %struct.SDL_GamepadBinding, ptr %150, i32 0, i32 0
  %152 = load i32, ptr %151, align 4
  %153 = icmp eq i32 %152, 1
  br i1 %153, label %154, label %169

154:                                              ; preds = %149
  %155 = load ptr, ptr %4, align 8
  %156 = getelementptr inbounds nuw %struct.SDL_Gamepad, ptr %155, i32 0, i32 0
  %157 = load ptr, ptr %156, align 8
  %158 = load ptr, ptr %9, align 8
  %159 = getelementptr inbounds nuw %struct.SDL_GamepadBinding, ptr %158, i32 0, i32 1
  %160 = load i32, ptr %159, align 4
  %161 = call zeroext i1 @SDL_GetJoystickButton_REAL(ptr noundef %157, i32 noundef %160)
  %162 = zext i1 %161 to i32
  %163 = load i8, ptr %6, align 1, !range !3, !noundef !4
  %164 = trunc i8 %163 to i1
  %165 = zext i1 %164 to i32
  %166 = or i32 %165, %162
  %167 = icmp ne i32 %166, 0
  %168 = zext i1 %167 to i8
  store i8 %168, ptr %6, align 1
  br label %199

169:                                              ; preds = %149
  %170 = load ptr, ptr %9, align 8
  %171 = getelementptr inbounds nuw %struct.SDL_GamepadBinding, ptr %170, i32 0, i32 0
  %172 = load i32, ptr %171, align 4
  %173 = icmp eq i32 %172, 3
  br i1 %173, label %174, label %198

174:                                              ; preds = %169
  call void @llvm.lifetime.start.p0(i64 4, ptr %13) #8
  %175 = load ptr, ptr %4, align 8
  %176 = getelementptr inbounds nuw %struct.SDL_Gamepad, ptr %175, i32 0, i32 0
  %177 = load ptr, ptr %176, align 8
  %178 = load ptr, ptr %9, align 8
  %179 = getelementptr inbounds nuw %struct.SDL_GamepadBinding, ptr %178, i32 0, i32 1
  %180 = getelementptr inbounds nuw %struct.anon.0, ptr %179, i32 0, i32 0
  %181 = load i32, ptr %180, align 4
  %182 = call zeroext i8 @SDL_GetJoystickHat_REAL(ptr noundef %177, i32 noundef %181)
  %183 = zext i8 %182 to i32
  store i32 %183, ptr %13, align 4
  %184 = load i32, ptr %13, align 4
  %185 = load ptr, ptr %9, align 8
  %186 = getelementptr inbounds nuw %struct.SDL_GamepadBinding, ptr %185, i32 0, i32 1
  %187 = getelementptr inbounds nuw %struct.anon.0, ptr %186, i32 0, i32 1
  %188 = load i32, ptr %187, align 4
  %189 = and i32 %184, %188
  %190 = icmp ne i32 %189, 0
  %191 = zext i1 %190 to i32
  %192 = load i8, ptr %6, align 1, !range !3, !noundef !4
  %193 = trunc i8 %192 to i1
  %194 = zext i1 %193 to i32
  %195 = or i32 %194, %191
  %196 = icmp ne i32 %195, 0
  %197 = zext i1 %196 to i8
  store i8 %197, ptr %6, align 1
  call void @llvm.lifetime.end.p0(i64 4, ptr %13) #8
  br label %198

198:                                              ; preds = %174, %169
  br label %199

199:                                              ; preds = %198, %154
  br label %200

200:                                              ; preds = %199, %148
  br label %201

201:                                              ; preds = %200, %41, %30
  call void @llvm.lifetime.end.p0(i64 8, ptr %9) #8
  br label %202

202:                                              ; preds = %201
  %203 = load i32, ptr %7, align 4
  %204 = add nsw i32 %203, 1
  store i32 %204, ptr %7, align 4
  br label %24, !llvm.loop !40

205:                                              ; preds = %24
  store i32 0, ptr %8, align 4
  br label %206

206:                                              ; preds = %205, %21
  call void @llvm.lifetime.end.p0(i64 4, ptr %7) #8
  %207 = load i32, ptr %8, align 4
  switch i32 %207, label %211 [
    i32 0, label %208
  ]

208:                                              ; preds = %206
  call void @SDL_UnlockJoysticks_REAL()
  %209 = load i8, ptr %6, align 1, !range !3, !noundef !4
  %210 = trunc i8 %209 to i1
  store i1 %210, ptr %3, align 1
  store i32 1, ptr %8, align 4
  br label %211

211:                                              ; preds = %208, %206
  call void @llvm.lifetime.end.p0(i64 1, ptr %6) #8
  %212 = load i1, ptr %3, align 1
  ret i1 %212
}