; Function Attrs: nounwind uwtable
define hidden zeroext i1 @SDL_GetGamepadButton_REAL(ptr noundef %0, i32 noundef %1) local_unnamed_addr #0 {
  tail call void @SDL_LockJoysticks_REAL() #10
  %3 = tail call zeroext i1 @SDL_ObjectValid(ptr noundef %0, i32 noundef 5) #10
  br i1 %3, label %4, label %68

4:                                                ; preds = %2
  %5 = load ptr, ptr %0, align 8
  %6 = tail call zeroext i1 @SDL_IsJoystickValid(ptr noundef %5) #10
  br i1 %6, label %.preheader, label %68

.preheader:                                       ; preds = %4
  %7 = getelementptr inbounds nuw i8, ptr %0, i64 40
  %8 = load i32, ptr %7, align 8
  %9 = icmp sgt i32 %8, 0
  br i1 %9, label %.lr.ph, label %._crit_edge

.lr.ph:                                           ; preds = %.preheader
  %10 = getelementptr inbounds nuw i8, ptr %0, i64 48
  br label %11

11:                                               ; preds = %.lr.ph, %64
  %indvars.iv = phi i64 [ 0, %.lr.ph ], [ %indvars.iv.next, %64 ]
  %.14762 = phi i1 [ false, %.lr.ph ], [ %.2, %64 ]
  %12 = load ptr, ptr %10, align 8
  %13 = getelementptr inbounds nuw %struct.SDL_GamepadBinding, ptr %12, i64 %indvars.iv
  %14 = getelementptr inbounds nuw i8, ptr %13, i64 16
  %15 = load i32, ptr %14, align 4
  %16 = icmp eq i32 %15, 1
  br i1 %16, label %17, label %64

17:                                               ; preds = %11
  %18 = getelementptr inbounds nuw i8, ptr %13, i64 20
  %19 = load i32, ptr %18, align 4
  %20 = icmp eq i32 %19, %1
  br i1 %20, label %21, label %64

21:                                               ; preds = %17
  %22 = load i32, ptr %13, align 4
  switch i32 %22, label %64 [
    i32 2, label %23
    i32 1, label %47
    i32 3, label %53
  ]

23:                                               ; preds = %21
  %24 = load ptr, ptr %0, align 8
  %25 = getelementptr inbounds nuw i8, ptr %13, i64 4
  %26 = load i32, ptr %25, align 4
  %27 = tail call signext i16 @SDL_GetJoystickAxis_REAL(ptr noundef %24, i32 noundef %26) #10
  %28 = sext i16 %27 to i32
  %29 = getelementptr inbounds nuw i8, ptr %13, i64 8
  %30 = load i32, ptr %29, align 4
  %31 = getelementptr inbounds nuw i8, ptr %13, i64 12
  %32 = load i32, ptr %31, align 4
  %33 = sub nsw i32 %32, %30
  %34 = sdiv i32 %33, 2
  %35 = add nsw i32 %34, %30
  %36 = icmp slt i32 %30, %32
  br i1 %36, label %37, label %42

37:                                               ; preds = %23
  %.not56 = icmp sle i32 %30, %28
  %38 = icmp sge i32 %32, %28
  %spec.select = and i1 %.not56, %38
  br i1 %spec.select, label %39, label %64

39:                                               ; preds = %37
  %40 = icmp sle i32 %35, %28
  %41 = or i1 %.14762, %40
  br label %64

42:                                               ; preds = %23
  %.not = icmp sle i32 %32, %28
  %43 = icmp sge i32 %30, %28
  %spec.select57 = and i1 %43, %.not
  br i1 %spec.select57, label %44, label %64

44:                                               ; preds = %42
  %45 = icmp sge i32 %35, %28
  %46 = or i1 %.14762, %45
  br label %64

47:                                               ; preds = %21
  %48 = load ptr, ptr %0, align 8
  %49 = getelementptr inbounds nuw i8, ptr %13, i64 4
  %50 = load i32, ptr %49, align 4
  %51 = tail call zeroext i1 @SDL_GetJoystickButton_REAL(ptr noundef %48, i32 noundef %50) #10
  %52 = or i1 %.14762, %51
  br label %64

53:                                               ; preds = %21
  %54 = load ptr, ptr %0, align 8
  %55 = getelementptr inbounds nuw i8, ptr %13, i64 4
  %56 = load i32, ptr %55, align 4
  %57 = tail call zeroext i8 @SDL_GetJoystickHat_REAL(ptr noundef %54, i32 noundef %56) #10
  %58 = zext i8 %57 to i32
  %59 = getelementptr inbounds nuw i8, ptr %13, i64 8
  %60 = load i32, ptr %59, align 4
  %61 = and i32 %60, %58
  %62 = icmp ne i32 %61, 0
  %63 = or i1 %.14762, %62
  br label %64

64:                                               ; preds = %21, %39, %37, %44, %42, %53, %47, %17, %11
  %.2 = phi i1 [ %52, %47 ], [ %63, %53 ], [ %.14762, %17 ], [ %.14762, %11 ], [ %41, %39 ], [ %.14762, %37 ], [ %46, %44 ], [ %.14762, %42 ], [ %.14762, %21 ]
  %indvars.iv.next = add nuw nsw i64 %indvars.iv, 1
  %65 = load i32, ptr %7, align 8
  %66 = sext i32 %65 to i64
  %67 = icmp slt i64 %indvars.iv.next, %66
  br i1 %67, label %11, label %._crit_edge, !llvm.loop !50

68:                                               ; preds = %2, %4
  %69 = tail call zeroext i1 (ptr, ...) @SDL_SetError_REAL(ptr noundef nonnull @.str.4, ptr noundef nonnull @.str.5) #10
  br label %._crit_edge

._crit_edge:                                      ; preds = %64, %.preheader, %68
  %.1 = phi i1 [ false, %68 ], [ false, %.preheader ], [ %.2, %64 ]
  tail call void @SDL_UnlockJoysticks_REAL() #10
  ret i1 %.1
}